; Function Attrs: mustprogress uwtable
define dso_local void @_ZN5vcpkg11note_prefixEv(ptr dead_on_unwind noalias writable sret(%"struct.vcpkg::LocalizedString") align 8 %0) local_unnamed_addr #3 personality ptr @__gxx_personality_v0 {
  %2 = alloca %"class.std::allocator", align 1
  call void @llvm.lifetime.start.p0(i64 1, ptr nonnull %2), !noalias !20
  call void @_ZNSaIcEC1Ev(ptr noundef nonnull align 1 dereferenceable(1) %2) #25, !noalias !20
  invoke void @_ZNSt7__cxx1112basic_stringIcSt11char_traitsIcESaIcEEC1EPKcmRKS3_(ptr noundef nonnull align 8 dereferenceable(32) %0, ptr noundef nonnull @.str.81, i64 noundef 6, ptr noundef nonnull align 1 dereferenceable(1) %2)
          to label %_ZN5vcpkg15LocalizedString8from_rawENS_10StringViewE.exit unwind label %3

3:                                                ; preds = %1
  %4 = landingpad { ptr, i32 }
          cleanup
  call void @_ZNSaIcED1Ev(ptr noundef nonnull align 1 dereferenceable(1) %2) #25
  resume { ptr, i32 } %4

_ZN5vcpkg15LocalizedString8from_rawENS_10StringViewE.exit: ; preds = %1
  call void @_ZNSaIcED1Ev(ptr noundef nonnull align 1 dereferenceable(1) %2) #25
  call void @llvm.lifetime.end.p0(i64 1, ptr nonnull %2), !noalias !20
  ret void
}